target datalayout = "e-m:e-p270:32:32-p271:32:32-p272:64:64-i64:64-i128:128-f80:128-n8:16:32:64-S128"
target triple = "x86_64-pc-linux-gnu"

%class.QString = type { %struct.QArrayDataPointer }
%struct.QArrayDataPointer = type { ptr, ptr, i64 }
%class.QModelIndex = type { i32, i32, i64, ptr }
%class.ProfileDialog = type { %class.GeometryStateDialog, ptr, ptr, ptr, ptr, ptr, ptr, ptr }
%class.GeometryStateDialog = type { %class.QDialog, %class.QString }
%class.QDialog = type { %class.QWidget }
%class.QWidget = type { %class.QObject, %class.QPaintDevice.base, ptr }
%class.QObject = type { ptr, %class.QScopedPointer }
%class.QScopedPointer = type { ptr }
%class.QPaintDevice.base = type <{ ptr, i16 }>
%class.Ui_ProfileDialog = type { ptr, ptr, ptr, ptr, ptr, ptr, ptr, ptr, ptr, ptr, ptr, ptr }

@mainApp = external global ptr, align 8

; Function Attrs: mustprogress nounwind uwtable
define linkonce_odr noundef zeroext i1 @_ZNK11QModelIndex7isValidEv(ptr noundef nonnull align 8 dereferenceable(24) %0) #1 comdat align 2 {
  %2 = alloca ptr, align 8
  store ptr %0, ptr %2, align 8
  %3 = load ptr, ptr %2, align 8
  %4 = getelementptr inbounds %class.QModelIndex, ptr %3, i32 0, i32 0
  %5 = load i32, ptr %4, align 8
  %6 = icmp sge i32 %5, 0
  br i1 %6, label %7, label %15

7:                                                ; preds = %1
  %8 = getelementptr inbounds %class.QModelIndex, ptr %3, i32 0, i32 1
  %9 = load i32, ptr %8, align 4
  %10 = icmp sge i32 %9, 0
  br i1 %10, label %11, label %15

11:                                               ; preds = %7
  %12 = getelementptr inbounds %class.QModelIndex, ptr %3, i32 0, i32 3
  %13 = load ptr, ptr %12, align 8
  %14 = icmp ne ptr %13, null
  br label %15

15:                                               ; preds = %11, %7, %1
  %16 = phi i1 [ false, %7 ], [ false, %1 ], [ %14, %11 ]
  ret i1 %16
}

; Function Attrs: mustprogress nounwind uwtable
define linkonce_odr void @_ZN11QModelIndexC2Ev(ptr noundef nonnull align 8 dereferenceable(24) %0) unnamed_addr #1 comdat align 2 {
  %2 = alloca ptr, align 8
  store ptr %0, ptr %2, align 8
  %3 = load ptr, ptr %2, align 8
  %4 = getelementptr inbounds %class.QModelIndex, ptr %3, i32 0, i32 0
  store i32 -1, ptr %4, align 8
  %5 = getelementptr inbounds %class.QModelIndex, ptr %3, i32 0, i32 1
  store i32 -1, ptr %5, align 4
  %6 = getelementptr inbounds %class.QModelIndex, ptr %3, i32 0, i32 2
  store i64 0, ptr %6, align 8
  %7 = getelementptr inbounds %class.QModelIndex, ptr %3, i32 0, i32 3
  store ptr null, ptr %7, align 8
  ret void
}

; Function Attrs: mustprogress uwtable
define noundef i32 @_ZN13ProfileDialog10execActionENS_13ProfileActionE(ptr noundef nonnull align 8 dereferenceable(120) %0, i32 noundef %1) #0 align 2 {
  %3 = alloca ptr, align 8
  %4 = alloca i32, align 4
  %5 = alloca i32, align 4
  %6 = alloca %class.QModelIndex, align 8
  %7 = alloca %class.QModelIndex, align 8
  store ptr %0, ptr %3, align 8
  store i32 %1, ptr %4, align 4
  %8 = load ptr, ptr %3, align 8
  store i32 1, ptr %5, align 4
  call void @_ZN11QModelIndexC2Ev(ptr noundef nonnull align 8 dereferenceable(24) %6) #14
  %9 = load i32, ptr %4, align 4
  switch i32 %9, label %46 [
    i32 0, label %10
    i32 1, label %15
    i32 2, label %20
    i32 3, label %21
    i32 4, label %22
    i32 5, label %23
    i32 6, label %24
    i32 7, label %40
  ]

10:                                               ; preds = %2
  %11 = load ptr, ptr %8, align 8
  %12 = getelementptr inbounds ptr, ptr %11, i64 53
  %13 = load ptr, ptr %12, align 8
  %14 = call noundef i32 %13(ptr noundef nonnull align 8 dereferenceable(40) %8)
  store i32 %14, ptr %5, align 4
  br label %46

15:                                               ; preds = %2
  call void @_ZN13ProfileDialog24on_newToolButton_clickedEv(ptr noundef nonnull align 8 dereferenceable(120) %8)
  %16 = load ptr, ptr %8, align 8
  %17 = getelementptr inbounds ptr, ptr %16, i64 53
  %18 = load ptr, ptr %17, align 8
  %19 = call noundef i32 %18(ptr noundef nonnull align 8 dereferenceable(40) %8)
  store i32 %19, ptr %5, align 4
  br label %46

20:                                               ; preds = %2
  call void @_ZN13ProfileDialog13importFromZipEv(ptr noundef nonnull align 8 dereferenceable(120) %8)
  br label %46

21:                                               ; preds = %2
  call void @_ZN13ProfileDialog19importFromDirectoryEv(ptr noundef nonnull align 8 dereferenceable(120) %8)
  br label %46

22:                                               ; preds = %2
  call void @_ZN13ProfileDialog14exportProfilesEb(ptr noundef nonnull align 8 dereferenceable(120) %8, i1 noundef zeroext false)
  br label %46

23:                                               ; preds = %2
  call void @_ZN13ProfileDialog14exportProfilesEb(ptr noundef nonnull align 8 dereferenceable(120) %8, i1 noundef zeroext true)
  br label %46

24:                                               ; preds = %2
  %25 = getelementptr inbounds %class.ProfileDialog, ptr %8, i32 0, i32 1
  %26 = load ptr, ptr %25, align 8
  %27 = getelementptr inbounds %class.Ui_ProfileDialog, ptr %26, i32 0, i32 4
  %28 = load ptr, ptr %27, align 8
  call void @_ZNK17QAbstractItemView12currentIndexEv(ptr dead_on_unwind writable sret(%class.QModelIndex) align 8 %7, ptr noundef nonnull align 8 dereferenceable(40) %28)
  call void @llvm.memcpy.p0.p0.i64(ptr align 8 %6, ptr align 8 %7, i64 24, i1 false)
  %29 = call noundef zeroext i1 @_ZNK11QModelIndex7isValidEv(ptr noundef nonnull align 8 dereferenceable(24) %6) #14
  br i1 %29, label %30, label %35

30:                                               ; preds = %24
  %31 = getelementptr inbounds %class.ProfileDialog, ptr %8, i32 0, i32 1
  %32 = load ptr, ptr %31, align 8
  %33 = getelementptr inbounds %class.Ui_ProfileDialog, ptr %32, i32 0, i32 4
  %34 = load ptr, ptr %33, align 8
  call void @_ZN17QAbstractItemView4editERK11QModelIndex(ptr noundef nonnull align 8 dereferenceable(40) %34, ptr noundef nonnull align 8 dereferenceable(24) %6)
  br label %35

35:                                               ; preds = %30, %24
  %36 = load ptr, ptr %8, align 8
  %37 = getelementptr inbounds ptr, ptr %36, i64 53
  %38 = load ptr, ptr %37, align 8
  %39 = call noundef i32 %38(ptr noundef nonnull align 8 dereferenceable(40) %8)
  store i32 %39, ptr %5, align 4
  br label %46

40:                                               ; preds = %2
  %41 = call i32 @delete_current_profile()
  %42 = icmp ne i32 %41, 0
  br i1 %42, label %43, label %45

43:                                               ; preds = %40
  %44 = load ptr, ptr @mainApp, align 8
  call void @_ZN15MainApplication23setConfigurationProfileEPKcb(ptr noundef nonnull align 8 dereferenceable(216) %44, ptr noundef null, i1 noundef zeroext true)
  br label %45

45:                                               ; preds = %43, %40
  br label %46

46:                                               ; preds = %45, %35, %23, %22, %21, %20, %15, %10, %2
  %47 = load i32, ptr %5, align 4
  ret i32 %47
}