; Function Attrs: mustprogress uwtable
define noundef i32 @_ZN13ProfileDialog10execActionENS_13ProfileActionE(ptr noundef nonnull align 8 dereferenceable(120) %0, i32 noundef %1) local_unnamed_addr #0 align 2 {
  %3 = alloca %class.QModelIndex, align 8
  %4 = alloca %class.QModelIndex, align 8
  switch i32 %1, label %44 [
    i32 0, label %5
    i32 1, label %10
    i32 2, label %15
    i32 3, label %16
    i32 4, label %17
    i32 5, label %18
    i32 6, label %19
    i32 7, label %40
  ]

5:                                                ; preds = %2
  %6 = load ptr, ptr %0, align 8
  %7 = getelementptr inbounds i8, ptr %6, i64 424
  %8 = load ptr, ptr %7, align 8
  %9 = tail call noundef i32 %8(ptr noundef nonnull align 8 dereferenceable(40) %0)
  br label %44

10:                                               ; preds = %2
  tail call void @_ZN13ProfileDialog24on_newToolButton_clickedEv(ptr noundef nonnull align 8 dereferenceable(120) %0)
  %11 = load ptr, ptr %0, align 8
  %12 = getelementptr inbounds i8, ptr %11, i64 424
  %13 = load ptr, ptr %12, align 8
  %14 = tail call noundef i32 %13(ptr noundef nonnull align 8 dereferenceable(40) %0)
  br label %44

15:                                               ; preds = %2
  tail call void @_ZN13ProfileDialog13importFromZipEv(ptr noundef nonnull align 8 dereferenceable(120) %0)
  br label %44

16:                                               ; preds = %2
  tail call void @_ZN13ProfileDialog19importFromDirectoryEv(ptr noundef nonnull align 8 dereferenceable(120) %0)
  br label %44

17:                                               ; preds = %2
  tail call void @_ZN13ProfileDialog14exportProfilesEb(ptr noundef nonnull align 8 dereferenceable(120) %0, i1 noundef zeroext false)
  br label %44

18:                                               ; preds = %2
  tail call void @_ZN13ProfileDialog14exportProfilesEb(ptr noundef nonnull align 8 dereferenceable(120) %0, i1 noundef zeroext true)
  br label %44

19:                                               ; preds = %2
  %20 = getelementptr inbounds i8, ptr %3, i64 4
  %21 = getelementptr inbounds i8, ptr %0, i64 64
  %22 = load ptr, ptr %21, align 8
  %23 = getelementptr inbounds i8, ptr %22, i64 32
  %24 = load ptr, ptr %23, align 8
  call void @_ZNK17QAbstractItemView12currentIndexEv(ptr dead_on_unwind nonnull writable sret(%class.QModelIndex) align 8 %4, ptr noundef nonnull align 8 dereferenceable(40) %24)
  call void @llvm.memcpy.p0.p0.i64(ptr noundef nonnull align 8 dereferenceable(24) %3, ptr noundef nonnull align 8 dereferenceable(24) %4, i64 24, i1 false)
  %25 = load i32, ptr %3, align 8
  %26 = icmp sgt i32 %25, -1
  %27 = load i32, ptr %20, align 4
  %28 = icmp sgt i32 %27, -1
  %or.cond.i = select i1 %26, i1 %28, i1 false
  %29 = getelementptr inbounds i8, ptr %3, i64 16
  %30 = load ptr, ptr %29, align 8
  %31 = icmp ne ptr %30, null
  %or.cond = select i1 %or.cond.i, i1 %31, i1 false
  br i1 %or.cond, label %32, label %_ZNK11QModelIndex7isValidEv.exit.thread

32:                                               ; preds = %19
  %33 = load ptr, ptr %21, align 8
  %34 = getelementptr inbounds i8, ptr %33, i64 32
  %35 = load ptr, ptr %34, align 8
  call void @_ZN17QAbstractItemView4editERK11QModelIndex(ptr noundef nonnull align 8 dereferenceable(40) %35, ptr noundef nonnull align 8 dereferenceable(24) %3)
  br label %_ZNK11QModelIndex7isValidEv.exit.thread

_ZNK11QModelIndex7isValidEv.exit.thread:          ; preds = %19, %32
  %36 = load ptr, ptr %0, align 8
  %37 = getelementptr inbounds i8, ptr %36, i64 424
  %38 = load ptr, ptr %37, align 8
  %39 = call noundef i32 %38(ptr noundef nonnull align 8 dereferenceable(40) %0)
  br label %44

40:                                               ; preds = %2
  %41 = tail call i32 @delete_current_profile()
  %.not = icmp eq i32 %41, 0
  br i1 %.not, label %44, label %42

42:                                               ; preds = %40
  %43 = load ptr, ptr @mainApp, align 8
  tail call void @_ZN15MainApplication23setConfigurationProfileEPKcb(ptr noundef nonnull align 8 dereferenceable(216) %43, ptr noundef null, i1 noundef zeroext true)
  br label %44

44:                                               ; preds = %40, %42, %_ZNK11QModelIndex7isValidEv.exit.thread, %18, %17, %16, %15, %10, %5, %2
  %.0 = phi i32 [ 1, %2 ], [ 1, %42 ], [ 1, %40 ], [ %39, %_ZNK11QModelIndex7isValidEv.exit.thread ], [ 1, %18 ], [ 1, %17 ], [ 1, %16 ], [ 1, %15 ], [ %14, %10 ], [ %9, %5 ]
  ret i32 %.0
}